; Function Attrs: nounwind uwtable
define noalias ptr @OSSL_STORE_INFO_get1_NAME(ptr noundef readonly captures(none) %0) local_unnamed_addr #0 {
  %2 = load i32, ptr %0, align 8, !tbaa !68
  %3 = icmp eq i32 %2, 1
  br i1 %3, label %4, label %8

4:                                                ; preds = %1
  %5 = getelementptr inbounds nuw i8, ptr %0, i64 8
  %6 = load ptr, ptr %5, align 8, !tbaa !8
  %7 = tail call noalias ptr @CRYPTO_strdup(ptr noundef %6, ptr noundef nonnull @.str.2, i32 noundef 715) #9
  br label %9

8:                                                ; preds = %1
  tail call void @ERR_new() #9
  tail call void @ERR_set_debug(ptr noundef nonnull @.str.2, i32 noundef 716, ptr noundef nonnull @__func__.OSSL_STORE_INFO_get1_NAME) #9
  tail call void (i32, i32, ptr, ...) @ERR_set_error(i32 noundef 44, i32 noundef 103, ptr noundef null) #9
  br label %9

9:                                                ; preds = %8, %4
  %.0 = phi ptr [ %7, %4 ], [ null, %8 ]
  ret ptr %.0
}